; Function Attrs: nounwind uwtable
define internal void @_ZThn56_N6v8impl12_GLOBAL__N_122ExternalStringResourceD0Ev(ptr noundef %this) unnamed_addr #8 align 2 {
entry:
  %0 = getelementptr inbounds i8, ptr %this, i64 -40
  store ptr getelementptr inbounds ({ [5 x ptr], [5 x ptr] }, ptr @_ZTVN6v8impl12_GLOBAL__N_121TrackedStringResourceE, i64 0, i32 0, i64 2), ptr %0, align 8
  store ptr getelementptr inbounds ({ [5 x ptr], [5 x ptr] }, ptr @_ZTVN6v8impl12_GLOBAL__N_121TrackedStringResourceE, i64 0, i32 1, i64 2), ptr %this, align 8
  %finalize_callback_.i.i.i = getelementptr inbounds i8, ptr %this, i64 -24
  %1 = load ptr, ptr %finalize_callback_.i.i.i, align 8
  %cmp.i.i.i = icmp eq ptr %1, null
  br i1 %cmp.i.i.i, label %_ZN6v8impl12_GLOBAL__N_122ExternalStringResourceD0Ev.exit, label %if.end.i.i.i

if.end.i.i.i:                                     ; preds = %entry
  %env_.i.i.i = getelementptr inbounds i8, ptr %this, i64 -32
  %2 = load ptr, ptr %env_.i.i.i, align 8
  %cmp2.i.i.i = icmp eq ptr %2, null
  br i1 %cmp2.i.i.i, label %if.then3.i.i.i, label %if.else.i.i.i

if.then3.i.i.i:                                   ; preds = %if.end.i.i.i
  %finalize_data_.i.i.i = getelementptr inbounds i8, ptr %this, i64 -16
  %3 = load ptr, ptr %finalize_data_.i.i.i, align 8
  %finalize_hint_.i.i.i = getelementptr inbounds i8, ptr %this, i64 -8
  %4 = load ptr, ptr %finalize_hint_.i.i.i, align 8
  tail call void %1(ptr noundef null, ptr noundef %3, ptr noundef %4) #24
  br label %_ZN6v8impl12_GLOBAL__N_122ExternalStringResourceD0Ev.exit

if.else.i.i.i:                                    ; preds = %if.end.i.i.i
  %prev_.i.i.i.i = getelementptr inbounds i8, ptr %this, i64 16
  %5 = load ptr, ptr %prev_.i.i.i.i, align 8
  %cmp.not.i.i.i.i = icmp eq ptr %5, null
  %next_4.phi.trans.insert.i.i.i.i = getelementptr inbounds i8, ptr %this, i64 8
  %.pre.i.i.i.i = load ptr, ptr %next_4.phi.trans.insert.i.i.i.i, align 8
  br i1 %cmp.not.i.i.i.i, label %if.end.i.i.i.i, label %if.then.i.i.i.i

if.then.i.i.i.i:                                  ; preds = %if.else.i.i.i
  %next_3.i.i.i.i = getelementptr inbounds i8, ptr %5, i64 8
  store ptr %.pre.i.i.i.i, ptr %next_3.i.i.i.i, align 8
  br label %if.end.i.i.i.i

if.end.i.i.i.i:                                   ; preds = %if.then.i.i.i.i, %if.else.i.i.i
  %cmp5.not.i.i.i.i = icmp eq ptr %.pre.i.i.i.i, null
  br i1 %cmp5.not.i.i.i.i, label %_ZN6v8impl10RefTracker6UnlinkEv.exit.i.i.i, label %if.then6.i.i.i.i

if.then6.i.i.i.i:                                 ; preds = %if.end.i.i.i.i
  %6 = load ptr, ptr %prev_.i.i.i.i, align 8
  %prev_9.i.i.i.i = getelementptr inbounds i8, ptr %.pre.i.i.i.i, i64 16
  store ptr %6, ptr %prev_9.i.i.i.i, align 8
  br label %_ZN6v8impl10RefTracker6UnlinkEv.exit.i.i.i

_ZN6v8impl10RefTracker6UnlinkEv.exit.i.i.i:       ; preds = %if.then6.i.i.i.i, %if.end.i.i.i.i
  tail call void @llvm.memset.p0.i64(ptr noundef nonnull align 8 dereferenceable(16) %next_4.phi.trans.insert.i.i.i.i, i8 0, i64 16, i1 false)
  %7 = load ptr, ptr %env_.i.i.i, align 8
  %8 = load ptr, ptr %finalize_callback_.i.i.i, align 8
  %finalize_data_8.i.i.i = getelementptr inbounds i8, ptr %this, i64 -16
  %9 = load ptr, ptr %finalize_data_8.i.i.i, align 8
  %finalize_hint_9.i.i.i = getelementptr inbounds i8, ptr %this, i64 -8
  %10 = load ptr, ptr %finalize_hint_9.i.i.i, align 8
  %vtable.i.i.i = load ptr, ptr %7, align 8
  %vfn.i.i.i = getelementptr inbounds i8, ptr %vtable.i.i.i, i64 8
  %11 = load ptr, ptr %vfn.i.i.i, align 8
  tail call void %11(ptr noundef nonnull align 8 dereferenceable(189) %7, ptr noundef %8, ptr noundef %9, ptr noundef %10) #24
  br label %_ZN6v8impl12_GLOBAL__N_122ExternalStringResourceD0Ev.exit

_ZN6v8impl12_GLOBAL__N_122ExternalStringResourceD0Ev.exit: ; preds = %entry, %if.then3.i.i.i, %_ZN6v8impl10RefTracker6UnlinkEv.exit.i.i.i
  %12 = getelementptr inbounds i8, ptr %this, i64 -56
  tail call void @_ZdlPv(ptr noundef nonnull %12) #26
  ret void
}